; Function Attrs: mustprogress nofree norecurse nosync nounwind willreturn memory(read, inaccessiblemem: none) uwtable
define hidden noundef zeroext i1 @_ZNK23default_expr2polynomial6is_intEj(ptr nocapture noundef nonnull readonly align 8 dereferenceable(24) %this, i32 noundef %x) unnamed_addr #7 align 2 {
entry:
  %m_is_int = getelementptr inbounds i8, ptr %this, i64 16
  %0 = load ptr, ptr %m_is_int, align 8
  %idxprom.i = zext i32 %x to i64
  %arrayidx.i = getelementptr inbounds i8, ptr %0, i64 %idxprom.i
  %1 = load i8, ptr %arrayidx.i, align 1
  %2 = and i8 %1, 1
  %tobool = icmp ne i8 %2, 0
  ret i1 %tobool
}